; ModuleID = 'source-C-CXX/24/251.cpp'
source_filename = "source-C-CXX/24/251.cpp"
target datalayout = "e-m:e-p270:32:32-p271:32:32-p272:64:64-i64:64-f80:128-n8:16:32:64-S128"
target triple = "x86_64-pc-linux-gnu"

%"class.std::ios_base::Init" = type { i8 }
%"class.std::basic_istream" = type { i32 (...)**, i64, %"class.std::basic_ios" }
%"class.std::basic_ios" = type { %"class.std::ios_base", %"class.std::basic_ostream"*, i8, i8, %"class.std::basic_streambuf"*, %"class.std::ctype"*, %"class.std::num_put"*, %"class.std::num_get"* }
%"class.std::ios_base" = type { i32 (...)**, i64, i64, i32, i32, i32, %"struct.std::ios_base::_Callback_list"*, %"struct.std::ios_base::_Words", [8 x %"struct.std::ios_base::_Words"], i32, %"struct.std::ios_base::_Words"*, %"class.std::locale" }
%"struct.std::ios_base::_Callback_list" = type { %"struct.std::ios_base::_Callback_list"*, void (i32, %"class.std::ios_base"*, i32)*, i32, i32 }
%"struct.std::ios_base::_Words" = type { i8*, i64 }
%"class.std::locale" = type { %"class.std::locale::_Impl"* }
%"class.std::locale::_Impl" = type { i32, %"class.std::locale::facet"**, i64, %"class.std::locale::facet"**, i8** }
%"class.std::locale::facet" = type <{ i32 (...)**, i32, [4 x i8] }>
%"class.std::basic_ostream" = type { i32 (...)**, %"class.std::basic_ios" }
%"class.std::basic_streambuf" = type { i32 (...)**, i8*, i8*, i8*, i8*, i8*, i8*, %"class.std::locale" }
%"class.std::ctype" = type <{ %"class.std::locale::facet.base", [4 x i8], %struct.__locale_struct*, i8, [7 x i8], i32*, i32*, i16*, i8, [256 x i8], [256 x i8], i8, [6 x i8] }>
%"class.std::locale::facet.base" = type <{ i32 (...)**, i32 }>
%struct.__locale_struct = type { [13 x %struct.__locale_data*], i16*, i32*, i32*, [13 x i8*] }
%struct.__locale_data = type opaque
%"class.std::num_put" = type { %"class.std::locale::facet.base", [4 x i8] }
%"class.std::num_get" = type { %"class.std::locale::facet.base", [4 x i8] }

@_ZStL8__ioinit = internal global %"class.std::ios_base::Init" zeroinitializer, align 1
@__dso_handle = external hidden global i8
@_ZSt3cin = external global %"class.std::basic_istream", align 8
@_ZSt4cout = external global %"class.std::basic_ostream", align 8
@llvm.global_ctors = appending global [1 x { i32, void ()*, i8* }] [{ i32, void ()*, i8* } { i32 65535, void ()* @_GLOBAL__sub_I_251.cpp, i8* null }]

declare void @_ZNSt8ios_base4InitC1Ev(%"class.std::ios_base::Init"* nonnull align 1 dereferenceable(1)) unnamed_addr #0

; Function Attrs: nounwind
declare void @_ZNSt8ios_base4InitD1Ev(%"class.std::ios_base::Init"* nonnull align 1 dereferenceable(1)) unnamed_addr #1

; Function Attrs: nofree nounwind
declare i32 @__cxa_atexit(void (i8*)*, i8*, i8*) local_unnamed_addr #2

; Function Attrs: mustprogress norecurse sspstrong uwtable
define dso_local i32 @main() local_unnamed_addr #3 {
  %1 = alloca i32, align 4
  %2 = alloca [50 x i32], align 16
  %3 = bitcast i32* %1 to i8*
  call void @llvm.lifetime.start.p0i8(i64 4, i8* nonnull %3) #8
  %4 = bitcast [50 x i32]* %2 to i8*
  call void @llvm.lifetime.start.p0i8(i64 200, i8* nonnull %4) #8
  call void @llvm.memset.p0i8.i64(i8* noundef nonnull align 16 dereferenceable(200) %4, i8 0, i64 200, i1 false)
  %5 = getelementptr inbounds [50 x i32], [50 x i32]* %2, i64 0, i64 0
  store i32 1, i32* %5, align 16, !tbaa !5
  %6 = call nonnull align 8 dereferenceable(16) %"class.std::basic_istream"* @_ZNSirsERi(%"class.std::basic_istream"* nonnull align 8 dereferenceable(16) @_ZSt3cin, i32* nonnull align 4 dereferenceable(4) %1)
  %7 = load i32, i32* %1, align 4, !tbaa !5
  %8 = add nsw i32 %7, -1
  store i32 %8, i32* %1, align 4, !tbaa !5
  %9 = icmp eq i32 %7, 0
  br i1 %9, label %54, label %10

10:                                               ; preds = %0, %44
  %11 = phi i32 [ %47, %44 ], [ %8, %0 ]
  %12 = phi i32 [ %46, %44 ], [ 1, %0 ]
  %13 = sext i32 %12 to i64
  %14 = icmp sgt i32 %12, 0
  br i1 %14, label %15, label %44

15:                                               ; preds = %10, %34
  %16 = phi i32* [ %38, %34 ], [ %5, %10 ]
  %17 = phi i32 [ %36, %34 ], [ 0, %10 ]
  %18 = phi i64 [ %37, %34 ], [ 0, %10 ]
  %19 = load i32, i32* %16, align 4, !tbaa !5
  %20 = shl i32 %19, 1
  %21 = add i32 %20, %17
  %22 = icmp sgt i32 %21, 9
  br i1 %22, label %23, label %34

23:                                               ; preds = %15
  %24 = add nuw nsw i32 %17, 9
  %25 = add i32 %24, %20
  %26 = call i32 @llvm.smin.i32(i32 %21, i32 19)
  %27 = sub i32 %25, %26
  %28 = udiv i32 %27, 10
  %29 = add nsw i32 %17, -10
  %30 = mul i32 %28, -10
  %31 = add nuw nsw i32 %28, 1
  %32 = add i32 %29, %20
  %33 = add i32 %30, %32
  br label %34

34:                                               ; preds = %23, %15
  %35 = phi i32 [ %21, %15 ], [ %33, %23 ]
  %36 = phi i32 [ 0, %15 ], [ %31, %23 ]
  store i32 %35, i32* %16, align 4, !tbaa !5
  %37 = add nuw nsw i64 %18, 1
  %38 = getelementptr inbounds [50 x i32], [50 x i32]* %2, i64 0, i64 %37
  %39 = icmp eq i64 %37, %13
  br i1 %39, label %40, label %15, !llvm.loop !9

40:                                               ; preds = %34
  %41 = icmp eq i32 %36, 0
  br i1 %41, label %44, label %42

42:                                               ; preds = %40
  %43 = add nsw i32 %12, 1
  store i32 %36, i32* %38, align 4, !tbaa !5
  br label %44

44:                                               ; preds = %10, %42, %40
  %45 = phi i64 [ %13, %42 ], [ %13, %40 ], [ 0, %10 ]
  %46 = phi i32 [ %43, %42 ], [ %12, %40 ], [ %12, %10 ]
  %47 = add nsw i32 %11, -1
  %48 = icmp eq i32 %11, 0
  br i1 %48, label %49, label %10, !llvm.loop !11

49:                                               ; preds = %44
  store i32 %47, i32* %1, align 4, !tbaa !5
  %50 = getelementptr inbounds [50 x i32], [50 x i32]* %2, i64 0, i64 %45
  %51 = load i32, i32* %50, align 4, !tbaa !5
  %52 = icmp eq i32 %51, 0
  %53 = sext i1 %52 to i64
  br label %54

54:                                               ; preds = %49, %0
  %55 = phi i64 [ 0, %0 ], [ %53, %49 ]
  %56 = phi i64 [ 0, %0 ], [ %45, %49 ]
  %57 = add nsw i64 %56, %55
  %58 = icmp slt i64 %57, 0
  br i1 %58, label %66, label %59

59:                                               ; preds = %54, %59
  %60 = phi i64 [ %64, %59 ], [ %57, %54 ]
  %61 = getelementptr inbounds [50 x i32], [50 x i32]* %2, i64 0, i64 %60
  %62 = load i32, i32* %61, align 4, !tbaa !5
  %63 = call nonnull align 8 dereferenceable(8) %"class.std::basic_ostream"* @_ZNSolsEi(%"class.std::basic_ostream"* nonnull align 8 dereferenceable(8) @_ZSt4cout, i32 %62)
  %64 = add nsw i64 %60, -1
  %65 = icmp slt i64 %60, 1
  br i1 %65, label %66, label %59, !llvm.loop !12

66:                                               ; preds = %59, %54
  call void @llvm.lifetime.end.p0i8(i64 200, i8* nonnull %4) #8
  call void @llvm.lifetime.end.p0i8(i64 4, i8* nonnull %3) #8
  ret i32 0
}

; Function Attrs: argmemonly mustprogress nofree nosync nounwind willreturn
declare void @llvm.lifetime.start.p0i8(i64 immarg, i8* nocapture) #4

; Function Attrs: argmemonly mustprogress nofree nounwind willreturn writeonly
declare void @llvm.memset.p0i8.i64(i8* nocapture writeonly, i8, i64, i1 immarg) #5

declare nonnull align 8 dereferenceable(16) %"class.std::basic_istream"* @_ZNSirsERi(%"class.std::basic_istream"* nonnull align 8 dereferenceable(16), i32* nonnull align 4 dereferenceable(4)) local_unnamed_addr #0

declare nonnull align 8 dereferenceable(8) %"class.std::basic_ostream"* @_ZNSolsEi(%"class.std::basic_ostream"* nonnull align 8 dereferenceable(8), i32) local_unnamed_addr #0

; Function Attrs: argmemonly mustprogress nofree nosync nounwind willreturn
declare void @llvm.lifetime.end.p0i8(i64 immarg, i8* nocapture) #4

; Function Attrs: sspstrong uwtable
define internal void @_GLOBAL__sub_I_251.cpp() #6 section ".text.startup" {
  tail call void @_ZNSt8ios_base4InitC1Ev(%"class.std::ios_base::Init"* nonnull align 1 dereferenceable(1) @_ZStL8__ioinit)
  %1 = tail call i32 @__cxa_atexit(void (i8*)* bitcast (void (%"class.std::ios_base::Init"*)* @_ZNSt8ios_base4InitD1Ev to void (i8*)*), i8* getelementptr inbounds (%"class.std::ios_base::Init", %"class.std::ios_base::Init"* @_ZStL8__ioinit, i64 0, i32 0), i8* nonnull @__dso_handle) #8
  ret void
}

; Function Attrs: nofree nosync nounwind readnone speculatable willreturn
declare i32 @llvm.smin.i32(i32, i32) #7


!llvm.module.flags = !{!0, !1, !2, !3}
!llvm.ident = !{!4}

!0 = !{i32 1, !"wchar_size", i32 4}
!1 = !{i32 7, !"PIC Level", i32 2}
!2 = !{i32 7, !"PIE Level", i32 2}
!3 = !{i32 7, !"uwtable", i32 1}
!4 = !{!"clang version 13.0.0"}
!5 = !{!6, !6, i64 0}
!6 = !{!"int", !7, i64 0}
!7 = !{!"omnipotent char", !8, i64 0}
!8 = !{!"Simple C++ TBAA"}
!9 = distinct !{!9, !10}
!10 = !{!"llvm.loop.mustprogress"}
!11 = distinct !{!11, !10}
!12 = distinct !{!12, !10}
